target datalayout = "e-m:e-p270:32:32-p271:32:32-p272:64:64-i64:64-i128:128-f80:128-n8:16:32:64-S128"
target triple = "x86_64-unknown-linux-gnu"

@_ZZN8QuantLib4Date11monthLengthENS_5MonthEbE11MonthLength = internal constant [12 x i32] [i32 31, i32 28, i32 31, i32 30, i32 31, i32 30, i32 31, i32 31, i32 30, i32 31, i32 30, i32 31], align 16
@_ZZN8QuantLib4Date11monthLengthENS_5MonthEbE15MonthLeapLength = internal constant [12 x i32] [i32 31, i32 29, i32 31, i32 30, i32 31, i32 30, i32 31, i32 31, i32 30, i32 31, i32 30, i32 31], align 16

; Function Attrs: mustprogress nounwind uwtable
define noundef i32 @_ZN8QuantLib4Date11monthLengthENS_5MonthEb(i32 noundef %m, i1 noundef zeroext %leapYear) #4 align 2 {
entry:
  %m.addr = alloca i32, align 4
  %leapYear.addr = alloca i8, align 1
  store i32 %m, ptr %m.addr, align 4, !tbaa !13
  %storedv = zext i1 %leapYear to i8
  store i8 %storedv, ptr %leapYear.addr, align 1, !tbaa !15
  %0 = load i8, ptr %leapYear.addr, align 1, !tbaa !15, !range !17, !noundef !18
  %loadedv = trunc i8 %0 to i1
  br i1 %loadedv, label %cond.true, label %cond.false

cond.true:                                        ; preds = %entry
  %1 = load i32, ptr %m.addr, align 4, !tbaa !13
  %sub = sub nsw i32 %1, 1
  %idxprom = sext i32 %sub to i64
  %arrayidx = getelementptr inbounds [12 x i32], ptr @_ZZN8QuantLib4Date11monthLengthENS_5MonthEbE15MonthLeapLength, i64 0, i64 %idxprom
  %2 = load i32, ptr %arrayidx, align 4, !tbaa !11
  br label %cond.end

cond.false:                                       ; preds = %entry
  %3 = load i32, ptr %m.addr, align 4, !tbaa !13
  %sub1 = sub nsw i32 %3, 1
  %idxprom2 = sext i32 %sub1 to i64
  %arrayidx3 = getelementptr inbounds [12 x i32], ptr @_ZZN8QuantLib4Date11monthLengthENS_5MonthEbE11MonthLength, i64 0, i64 %idxprom2
  %4 = load i32, ptr %arrayidx3, align 4, !tbaa !11
  br label %cond.end

cond.end:                                         ; preds = %cond.false, %cond.true
  %cond = phi i32 [ %2, %cond.true ], [ %4, %cond.false ]
  ret i32 %cond
}